; Function Attrs: mustprogress uwtable
define void @_ZN3zmq8gather_tC2EPNS_5ctx_tEji(ptr noundef nonnull align 8 dereferenceable(1880) %0, ptr noundef %1, i32 noundef %2, i32 noundef %3) unnamed_addr #0 align 2 personality ptr @__gxx_personality_v0 {
  tail call void @_ZN3zmq13socket_base_tC2EPNS_5ctx_tEjib(ptr noundef nonnull align 8 dereferenceable(1825) %0, ptr noundef %1, i32 noundef %2, i32 noundef %3, i1 noundef zeroext true)
  store ptr getelementptr inbounds nuw inrange(-16, 360) (i8, ptr @_ZTVN3zmq8gather_tE, i64 16), ptr %0, align 8, !tbaa !3
  %5 = getelementptr inbounds nuw i8, ptr %0, i64 1448
  store ptr getelementptr inbounds nuw inrange(-16, 16) (i8, ptr @_ZTVN3zmq8gather_tE, i64 392), ptr %5, align 8, !tbaa !3
  %6 = getelementptr inbounds nuw i8, ptr %0, i64 1464
  store ptr getelementptr inbounds nuw inrange(-16, 40) (i8, ptr @_ZTVN3zmq8gather_tE, i64 424), ptr %6, align 8, !tbaa !3
  %7 = getelementptr inbounds nuw i8, ptr %0, i64 1472
  store ptr getelementptr inbounds nuw inrange(-16, 48) (i8, ptr @_ZTVN3zmq8gather_tE, i64 480), ptr %7, align 8, !tbaa !3
  %8 = getelementptr inbounds nuw i8, ptr %0, i64 1832
  invoke void @_ZN3zmq4fq_tC1Ev(ptr noundef nonnull align 8 dereferenceable(41) %8)
          to label %9 unwind label %11

9:                                                ; preds = %4
  %10 = getelementptr inbounds nuw i8, ptr %0, i64 332
  store i8 16, ptr %10, align 4, !tbaa !6
  ret void

11:                                               ; preds = %4
  %12 = landingpad { ptr, i32 }
          cleanup
  tail call void @_ZN3zmq13socket_base_tD2Ev(ptr noundef nonnull align 8 dereferenceable(1825) %0) #8
  resume { ptr, i32 } %12
}